; Function Attrs: mustprogress uwtable
define hidden void @_ZN4cvc58internal6theory2uf31CardinalityConstraintOpTypeRule11computeTypeEPNS0_11NodeManagerENS0_12NodeTemplateILb0EEEbPSo(ptr dead_on_unwind noalias writable sret(%"class.cvc5::internal::TypeNode") align 8 %0, ptr noundef %1, ptr noundef readonly captures(none) %2, i1 noundef zeroext %3, ptr noundef %4) local_unnamed_addr #3 align 2 {
  br i1 %3, label %6, label %_ZN4cvc58internal8TypeNode4nullEv.exit

6:                                                ; preds = %5
  %7 = load ptr, ptr %2, align 8, !tbaa !16
  %8 = tail call noundef nonnull align 8 dereferenceable(24) ptr @_ZNK4cvc58internal4expr9NodeValue8getConstINS0_21CardinalityConstraintEEERKT_v(ptr noundef nonnull align 8 dereferenceable(24) %7)
  %9 = tail call noundef nonnull align 8 dereferenceable(8) ptr @_ZNK4cvc58internal21CardinalityConstraint7getTypeEv(ptr noundef nonnull align 8 dereferenceable(24) %8)
  %10 = tail call noundef zeroext i1 @_ZNK4cvc58internal8TypeNode19isUninterpretedSortEv(ptr noundef nonnull align 8 dereferenceable(8) %9)
  br i1 %10, label %30, label %11

11:                                               ; preds = %6
  %.not = icmp eq ptr %4, null
  br i1 %.not, label %14, label %12

12:                                               ; preds = %11
  %13 = tail call noundef nonnull align 8 dereferenceable(8) ptr @_ZSt16__ostream_insertIcSt11char_traitsIcEERSt13basic_ostreamIT_T0_ES6_PKS3_l(ptr noundef nonnull align 8 dereferenceable(8) %4, ptr noundef nonnull @.str.9, i64 noundef 55)
  br label %14

14:                                               ; preds = %12, %11
  tail call void @llvm.experimental.noalias.scope.decl(metadata !65)
  %15 = load ptr, ptr @_ZN4cvc58internal8TypeNode6s_nullE, align 8, !tbaa !6, !noalias !65
  store ptr %15, ptr %0, align 8, !tbaa !6, !alias.scope !65
  %16 = load i64, ptr %15, align 8, !noalias !65
  %17 = lshr i64 %16, 40
  %18 = trunc nuw nsw i64 %17 to i32
  %19 = and i32 %18, 1048575
  %20 = icmp samesign ult i32 %19, 1048574
  br i1 %20, label %21, label %26, !prof !12

21:                                               ; preds = %14
  %22 = add i64 %16, 1099511627776
  %23 = and i64 %22, 1152920405095219200
  %24 = and i64 %16, -1152920405095219201
  %25 = or disjoint i64 %23, %24
  store i64 %25, ptr %15, align 8, !noalias !65
  br label %_ZN4cvc58internal8TypeNode4nullEv.exit.thread

26:                                               ; preds = %14
  %27 = icmp eq i32 %19, 1048574
  br i1 %27, label %28, label %_ZN4cvc58internal8TypeNode4nullEv.exit.thread, !prof !13

28:                                               ; preds = %26
  %29 = or i64 %16, 1152920405095219200
  store i64 %29, ptr %15, align 8, !noalias !65
  tail call void @_ZN4cvc58internal4expr9NodeValue20markRefCountMaxedOutEv(ptr noundef nonnull align 8 dereferenceable(24) %15), !noalias !65
  br label %_ZN4cvc58internal8TypeNode4nullEv.exit.thread

30:                                               ; preds = %6
  %31 = tail call noundef nonnull align 8 dereferenceable(16) ptr @_ZNK4cvc58internal21CardinalityConstraint13getUpperBoundEv(ptr noundef nonnull align 8 dereferenceable(24) %8)
  %32 = tail call noundef i32 @_ZNK4cvc58internal7Integer3sgnEv(ptr noundef nonnull align 8 dereferenceable(16) %31)
  %.not9 = icmp eq i32 %32, 1
  br i1 %.not9, label %_ZN4cvc58internal8TypeNode4nullEv.exit, label %33

33:                                               ; preds = %30
  %.not10 = icmp eq ptr %4, null
  br i1 %.not10, label %36, label %34

34:                                               ; preds = %33
  %35 = tail call noundef nonnull align 8 dereferenceable(8) ptr @_ZSt16__ostream_insertIcSt11char_traitsIcEERSt13basic_ostreamIT_T0_ES6_PKS3_l(ptr noundef nonnull align 8 dereferenceable(8) %4, ptr noundef nonnull @.str.10, i64 noundef 39)
  br label %36

36:                                               ; preds = %34, %33
  tail call void @llvm.experimental.noalias.scope.decl(metadata !68)
  %37 = load ptr, ptr @_ZN4cvc58internal8TypeNode6s_nullE, align 8, !tbaa !6, !noalias !68
  store ptr %37, ptr %0, align 8, !tbaa !6, !alias.scope !68
  %38 = load i64, ptr %37, align 8, !noalias !68
  %39 = lshr i64 %38, 40
  %40 = trunc nuw nsw i64 %39 to i32
  %41 = and i32 %40, 1048575
  %42 = icmp samesign ult i32 %41, 1048574
  br i1 %42, label %43, label %48, !prof !12

43:                                               ; preds = %36
  %44 = add i64 %38, 1099511627776
  %45 = and i64 %44, 1152920405095219200
  %46 = and i64 %38, -1152920405095219201
  %47 = or disjoint i64 %45, %46
  store i64 %47, ptr %37, align 8, !noalias !68
  br label %_ZN4cvc58internal8TypeNode4nullEv.exit.thread

48:                                               ; preds = %36
  %49 = icmp eq i32 %41, 1048574
  br i1 %49, label %50, label %_ZN4cvc58internal8TypeNode4nullEv.exit.thread, !prof !13

50:                                               ; preds = %48
  %51 = or i64 %38, 1152920405095219200
  store i64 %51, ptr %37, align 8, !noalias !68
  tail call void @_ZN4cvc58internal4expr9NodeValue20markRefCountMaxedOutEv(ptr noundef nonnull align 8 dereferenceable(24) %37), !noalias !68
  br label %_ZN4cvc58internal8TypeNode4nullEv.exit.thread

_ZN4cvc58internal8TypeNode4nullEv.exit:           ; preds = %30, %5
  tail call void @_ZN4cvc58internal11NodeManager19builtinOperatorTypeEv(ptr dead_on_unwind writable sret(%"class.cvc5::internal::TypeNode") align 8 %0, ptr noundef nonnull align 8 dereferenceable(3560) %1)
  br label %_ZN4cvc58internal8TypeNode4nullEv.exit.thread

_ZN4cvc58internal8TypeNode4nullEv.exit.thread:    ; preds = %50, %48, %43, %28, %26, %21, %_ZN4cvc58internal8TypeNode4nullEv.exit
  ret void
}